target datalayout = "e-m:e-p270:32:32-p271:32:32-p272:64:64-i64:64-i128:128-f80:128-n8:16:32:64-S128"
target triple = "x86_64-pc-linux-gnu"

%struct.AVFilterContext = type { ptr, ptr, ptr, ptr, ptr, i32, ptr, ptr, i32, ptr, ptr, i32, i32, ptr, ptr, ptr, ptr, i32, ptr, i32, i32 }
%struct.RemapContext = type { ptr, i32, i32, i32, i32, [4 x i8], [4 x i32], %struct.FFFrameSync, ptr }
%struct.FFFrameSync = type { ptr, ptr, i32, %struct.AVRational, i64, ptr, ptr, i32, i32, i8, i8, ptr, i32, i32, i32, i32 }
%struct.AVRational = type { i32, i32 }
%struct.AVChannelLayout = type { i32, i32, %union.anon.1, ptr }
%union.anon.1 = type { i64 }
%struct.ThreadData = type { ptr, ptr, ptr, ptr, i32, i32, i32 }
%struct.AVFrame = type { [8 x ptr], [8 x i32], ptr, i32, i32, i32, i32, i32, %struct.AVRational, i64, i64, %struct.AVRational, i32, ptr, i32, i32, [8 x ptr], ptr, i32, ptr, i32, i32, i32, i32, i32, i32, i32, i64, ptr, i32, ptr, ptr, i64, i64, i64, i64, ptr, %struct.AVChannelLayout, i64 }

; Function Attrs: nounwind uwtable
define internal i32 @remap_planar8_nearest_slice(ptr noundef %0, ptr noundef %1, i32 noundef %2, i32 noundef %3) #1 {
  %5 = alloca ptr, align 8
  %6 = alloca ptr, align 8
  %7 = alloca i32, align 4
  %8 = alloca i32, align 4
  %9 = alloca ptr, align 8
  %10 = alloca ptr, align 8
  %11 = alloca ptr, align 8
  %12 = alloca ptr, align 8
  %13 = alloca ptr, align 8
  %14 = alloca ptr, align 8
  %15 = alloca i32, align 4
  %16 = alloca i32, align 4
  %17 = alloca i32, align 4
  %18 = alloca i32, align 4
  %19 = alloca i32, align 4
  %20 = alloca i32, align 4
  %21 = alloca i32, align 4
  %22 = alloca i32, align 4
  %23 = alloca ptr, align 8
  %24 = alloca ptr, align 8
  %25 = alloca i32, align 4
  %26 = alloca ptr, align 8
  %27 = alloca ptr, align 8
  %28 = alloca i32, align 4
  store ptr %0, ptr %5, align 8, !tbaa !4
  store ptr %1, ptr %6, align 8, !tbaa !58
  store i32 %2, ptr %7, align 4, !tbaa !36
  store i32 %3, ptr %8, align 4, !tbaa !36
  call void @llvm.lifetime.start.p0(i64 8, ptr %9) #8
  %29 = load ptr, ptr %5, align 8, !tbaa !4
  %30 = getelementptr inbounds nuw %struct.AVFilterContext, ptr %29, i32 0, i32 9
  %31 = load ptr, ptr %30, align 8, !tbaa !9
  store ptr %31, ptr %9, align 8, !tbaa !22
  call void @llvm.lifetime.start.p0(i64 8, ptr %10) #8
  %32 = load ptr, ptr %6, align 8, !tbaa !58
  store ptr %32, ptr %10, align 8, !tbaa !59
  call void @llvm.lifetime.start.p0(i64 8, ptr %11) #8
  %33 = load ptr, ptr %10, align 8, !tbaa !59
  %34 = getelementptr inbounds nuw %struct.ThreadData, ptr %33, i32 0, i32 0
  %35 = load ptr, ptr %34, align 8, !tbaa !61
  store ptr %35, ptr %11, align 8, !tbaa !64
  call void @llvm.lifetime.start.p0(i64 8, ptr %12) #8
  %36 = load ptr, ptr %10, align 8, !tbaa !59
  %37 = getelementptr inbounds nuw %struct.ThreadData, ptr %36, i32 0, i32 1
  %38 = load ptr, ptr %37, align 8, !tbaa !65
  store ptr %38, ptr %12, align 8, !tbaa !64
  call void @llvm.lifetime.start.p0(i64 8, ptr %13) #8
  %39 = load ptr, ptr %10, align 8, !tbaa !59
  %40 = getelementptr inbounds nuw %struct.ThreadData, ptr %39, i32 0, i32 2
  %41 = load ptr, ptr %40, align 8, !tbaa !66
  store ptr %41, ptr %13, align 8, !tbaa !64
  call void @llvm.lifetime.start.p0(i64 8, ptr %14) #8
  %42 = load ptr, ptr %10, align 8, !tbaa !59
  %43 = getelementptr inbounds nuw %struct.ThreadData, ptr %42, i32 0, i32 3
  %44 = load ptr, ptr %43, align 8, !tbaa !67
  store ptr %44, ptr %14, align 8, !tbaa !64
  call void @llvm.lifetime.start.p0(i64 4, ptr %15) #8
  %45 = load ptr, ptr %14, align 8, !tbaa !64
  %46 = getelementptr inbounds nuw %struct.AVFrame, ptr %45, i32 0, i32 4
  %47 = load i32, ptr %46, align 4, !tbaa !68
  %48 = load i32, ptr %7, align 4, !tbaa !36
  %49 = mul nsw i32 %47, %48
  %50 = load i32, ptr %8, align 4, !tbaa !36
  %51 = sdiv i32 %49, %50
  store i32 %51, ptr %15, align 4, !tbaa !36
  call void @llvm.lifetime.start.p0(i64 4, ptr %16) #8
  %52 = load ptr, ptr %14, align 8, !tbaa !64
  %53 = getelementptr inbounds nuw %struct.AVFrame, ptr %52, i32 0, i32 4
  %54 = load i32, ptr %53, align 4, !tbaa !68
  %55 = load i32, ptr %7, align 4, !tbaa !36
  %56 = add nsw i32 %55, 1
  %57 = mul nsw i32 %54, %56
  %58 = load i32, ptr %8, align 4, !tbaa !36
  %59 = sdiv i32 %57, %58
  store i32 %59, ptr %16, align 4, !tbaa !36
  call void @llvm.lifetime.start.p0(i64 4, ptr %17) #8
  %60 = load ptr, ptr %12, align 8, !tbaa !64
  %61 = getelementptr inbounds nuw %struct.AVFrame, ptr %60, i32 0, i32 1
  %62 = getelementptr inbounds [8 x i32], ptr %61, i64 0, i64 0
  %63 = load i32, ptr %62, align 8, !tbaa !36
  %64 = sdiv i32 %63, 2
  store i32 %64, ptr %17, align 4, !tbaa !36
  call void @llvm.lifetime.start.p0(i64 4, ptr %18) #8
  %65 = load ptr, ptr %13, align 8, !tbaa !64
  %66 = getelementptr inbounds nuw %struct.AVFrame, ptr %65, i32 0, i32 1
  %67 = getelementptr inbounds [8 x i32], ptr %66, i64 0, i64 0
  %68 = load i32, ptr %67, align 8, !tbaa !36
  %69 = sdiv i32 %68, 2
  store i32 %69, ptr %18, align 4, !tbaa !36
  call void @llvm.lifetime.start.p0(i64 4, ptr %19) #8
  call void @llvm.lifetime.start.p0(i64 4, ptr %20) #8
  call void @llvm.lifetime.start.p0(i64 4, ptr %21) #8
  store i32 0, ptr %21, align 4, !tbaa !36
  br label %70

70:                                               ; preds = %218, %4
  %71 = load i32, ptr %21, align 4, !tbaa !36
  %72 = load ptr, ptr %10, align 8, !tbaa !59
  %73 = getelementptr inbounds nuw %struct.ThreadData, ptr %72, i32 0, i32 4
  %74 = load i32, ptr %73, align 8, !tbaa !73
  %75 = icmp slt i32 %71, %74
  br i1 %75, label %76, label %221

76:                                               ; preds = %70
  call void @llvm.lifetime.start.p0(i64 4, ptr %22) #8
  %77 = load ptr, ptr %14, align 8, !tbaa !64
  %78 = getelementptr inbounds nuw %struct.AVFrame, ptr %77, i32 0, i32 1
  %79 = load i32, ptr %21, align 4, !tbaa !36
  %80 = sext i32 %79 to i64
  %81 = getelementptr inbounds [8 x i32], ptr %78, i64 0, i64 %80
  %82 = load i32, ptr %81, align 4, !tbaa !36
  %83 = sdiv i32 %82, 1
  store i32 %83, ptr %22, align 4, !tbaa !36
  call void @llvm.lifetime.start.p0(i64 8, ptr %23) #8
  %84 = load ptr, ptr %11, align 8, !tbaa !64
  %85 = getelementptr inbounds nuw %struct.AVFrame, ptr %84, i32 0, i32 0
  %86 = load i32, ptr %21, align 4, !tbaa !36
  %87 = sext i32 %86 to i64
  %88 = getelementptr inbounds [8 x ptr], ptr %85, i64 0, i64 %87
  %89 = load ptr, ptr %88, align 8, !tbaa !74
  store ptr %89, ptr %23, align 8, !tbaa !74
  call void @llvm.lifetime.start.p0(i64 8, ptr %24) #8
  %90 = load ptr, ptr %14, align 8, !tbaa !64
  %91 = getelementptr inbounds nuw %struct.AVFrame, ptr %90, i32 0, i32 0
  %92 = load i32, ptr %21, align 4, !tbaa !36
  %93 = sext i32 %92 to i64
  %94 = getelementptr inbounds [8 x ptr], ptr %91, i64 0, i64 %93
  %95 = load ptr, ptr %94, align 8, !tbaa !74
  %96 = load i32, ptr %15, align 4, !tbaa !36
  %97 = load i32, ptr %22, align 4, !tbaa !36
  %98 = mul nsw i32 %96, %97
  %99 = sext i32 %98 to i64
  %100 = getelementptr inbounds i8, ptr %95, i64 %99
  store ptr %100, ptr %24, align 8, !tbaa !74
  call void @llvm.lifetime.start.p0(i64 4, ptr %25) #8
  %101 = load ptr, ptr %11, align 8, !tbaa !64
  %102 = getelementptr inbounds nuw %struct.AVFrame, ptr %101, i32 0, i32 1
  %103 = load i32, ptr %21, align 4, !tbaa !36
  %104 = sext i32 %103 to i64
  %105 = getelementptr inbounds [8 x i32], ptr %102, i64 0, i64 %104
  %106 = load i32, ptr %105, align 4, !tbaa !36
  %107 = sdiv i32 %106, 1
  store i32 %107, ptr %25, align 4, !tbaa !36
  call void @llvm.lifetime.start.p0(i64 8, ptr %26) #8
  %108 = load ptr, ptr %12, align 8, !tbaa !64
  %109 = getelementptr inbounds nuw %struct.AVFrame, ptr %108, i32 0, i32 0
  %110 = getelementptr inbounds [8 x ptr], ptr %109, i64 0, i64 0
  %111 = load ptr, ptr %110, align 8, !tbaa !74
  %112 = load i32, ptr %15, align 4, !tbaa !36
  %113 = load i32, ptr %17, align 4, !tbaa !36
  %114 = mul nsw i32 %112, %113
  %115 = sext i32 %114 to i64
  %116 = getelementptr inbounds i16, ptr %111, i64 %115
  store ptr %116, ptr %26, align 8, !tbaa !75
  call void @llvm.lifetime.start.p0(i64 8, ptr %27) #8
  %117 = load ptr, ptr %13, align 8, !tbaa !64
  %118 = getelementptr inbounds nuw %struct.AVFrame, ptr %117, i32 0, i32 0
  %119 = getelementptr inbounds [8 x ptr], ptr %118, i64 0, i64 0
  %120 = load ptr, ptr %119, align 8, !tbaa !74
  %121 = load i32, ptr %15, align 4, !tbaa !36
  %122 = load i32, ptr %18, align 4, !tbaa !36
  %123 = mul nsw i32 %121, %122
  %124 = sext i32 %123 to i64
  %125 = getelementptr inbounds i16, ptr %120, i64 %124
  store ptr %125, ptr %27, align 8, !tbaa !75
  call void @llvm.lifetime.start.p0(i64 4, ptr %28) #8
  %126 = load ptr, ptr %9, align 8, !tbaa !22
  %127 = getelementptr inbounds nuw %struct.RemapContext, ptr %126, i32 0, i32 6
  %128 = load i32, ptr %21, align 4, !tbaa !36
  %129 = sext i32 %128 to i64
  %130 = getelementptr inbounds [4 x i32], ptr %127, i64 0, i64 %129
  %131 = load i32, ptr %130, align 4, !tbaa !36
  store i32 %131, ptr %28, align 4, !tbaa !36
  %132 = load i32, ptr %15, align 4, !tbaa !36
  store i32 %132, ptr %20, align 4, !tbaa !36
  br label %133

133:                                              ; preds = %214, %76
  %134 = load i32, ptr %20, align 4, !tbaa !36
  %135 = load i32, ptr %16, align 4, !tbaa !36
  %136 = icmp slt i32 %134, %135
  br i1 %136, label %137, label %217

137:                                              ; preds = %133
  store i32 0, ptr %19, align 4, !tbaa !36
  br label %138

138:                                              ; preds = %198, %137
  %139 = load i32, ptr %19, align 4, !tbaa !36
  %140 = load ptr, ptr %14, align 8, !tbaa !64
  %141 = getelementptr inbounds nuw %struct.AVFrame, ptr %140, i32 0, i32 3
  %142 = load i32, ptr %141, align 8, !tbaa !77
  %143 = icmp slt i32 %139, %142
  br i1 %143, label %144, label %201

144:                                              ; preds = %138
  %145 = load ptr, ptr %27, align 8, !tbaa !75
  %146 = load i32, ptr %19, align 4, !tbaa !36
  %147 = sext i32 %146 to i64
  %148 = getelementptr inbounds i16, ptr %145, i64 %147
  %149 = load i16, ptr %148, align 2, !tbaa !78
  %150 = zext i16 %149 to i32
  %151 = load ptr, ptr %11, align 8, !tbaa !64
  %152 = getelementptr inbounds nuw %struct.AVFrame, ptr %151, i32 0, i32 4
  %153 = load i32, ptr %152, align 4, !tbaa !68
  %154 = icmp slt i32 %150, %153
  br i1 %154, label %155, label %190

155:                                              ; preds = %144
  %156 = load ptr, ptr %26, align 8, !tbaa !75
  %157 = load i32, ptr %19, align 4, !tbaa !36
  %158 = sext i32 %157 to i64
  %159 = getelementptr inbounds i16, ptr %156, i64 %158
  %160 = load i16, ptr %159, align 2, !tbaa !78
  %161 = zext i16 %160 to i32
  %162 = load ptr, ptr %11, align 8, !tbaa !64
  %163 = getelementptr inbounds nuw %struct.AVFrame, ptr %162, i32 0, i32 3
  %164 = load i32, ptr %163, align 8, !tbaa !77
  %165 = icmp slt i32 %161, %164
  br i1 %165, label %166, label %190

166:                                              ; preds = %155
  %167 = load ptr, ptr %23, align 8, !tbaa !74
  %168 = load ptr, ptr %27, align 8, !tbaa !75
  %169 = load i32, ptr %19, align 4, !tbaa !36
  %170 = sext i32 %169 to i64
  %171 = getelementptr inbounds i16, ptr %168, i64 %170
  %172 = load i16, ptr %171, align 2, !tbaa !78
  %173 = zext i16 %172 to i32
  %174 = load i32, ptr %25, align 4, !tbaa !36
  %175 = mul nsw i32 %173, %174
  %176 = load ptr, ptr %26, align 8, !tbaa !75
  %177 = load i32, ptr %19, align 4, !tbaa !36
  %178 = sext i32 %177 to i64
  %179 = getelementptr inbounds i16, ptr %176, i64 %178
  %180 = load i16, ptr %179, align 2, !tbaa !78
  %181 = zext i16 %180 to i32
  %182 = add nsw i32 %175, %181
  %183 = sext i32 %182 to i64
  %184 = getelementptr inbounds i8, ptr %167, i64 %183
  %185 = load i8, ptr %184, align 1, !tbaa !55
  %186 = load ptr, ptr %24, align 8, !tbaa !74
  %187 = load i32, ptr %19, align 4, !tbaa !36
  %188 = sext i32 %187 to i64
  %189 = getelementptr inbounds i8, ptr %186, i64 %188
  store i8 %185, ptr %189, align 1, !tbaa !55
  br label %197

190:                                              ; preds = %155, %144
  %191 = load i32, ptr %28, align 4, !tbaa !36
  %192 = trunc i32 %191 to i8
  %193 = load ptr, ptr %24, align 8, !tbaa !74
  %194 = load i32, ptr %19, align 4, !tbaa !36
  %195 = sext i32 %194 to i64
  %196 = getelementptr inbounds i8, ptr %193, i64 %195
  store i8 %192, ptr %196, align 1, !tbaa !55
  br label %197

197:                                              ; preds = %190, %166
  br label %198

198:                                              ; preds = %197
  %199 = load i32, ptr %19, align 4, !tbaa !36
  %200 = add nsw i32 %199, 1
  store i32 %200, ptr %19, align 4, !tbaa !36
  br label %138, !llvm.loop !80

201:                                              ; preds = %138
  %202 = load i32, ptr %22, align 4, !tbaa !36
  %203 = load ptr, ptr %24, align 8, !tbaa !74
  %204 = sext i32 %202 to i64
  %205 = getelementptr inbounds i8, ptr %203, i64 %204
  store ptr %205, ptr %24, align 8, !tbaa !74
  %206 = load i32, ptr %17, align 4, !tbaa !36
  %207 = load ptr, ptr %26, align 8, !tbaa !75
  %208 = sext i32 %206 to i64
  %209 = getelementptr inbounds i16, ptr %207, i64 %208
  store ptr %209, ptr %26, align 8, !tbaa !75
  %210 = load i32, ptr %18, align 4, !tbaa !36
  %211 = load ptr, ptr %27, align 8, !tbaa !75
  %212 = sext i32 %210 to i64
  %213 = getelementptr inbounds i16, ptr %211, i64 %212
  store ptr %213, ptr %27, align 8, !tbaa !75
  br label %214

214:                                              ; preds = %201
  %215 = load i32, ptr %20, align 4, !tbaa !36
  %216 = add nsw i32 %215, 1
  store i32 %216, ptr %20, align 4, !tbaa !36
  br label %133, !llvm.loop !82

217:                                              ; preds = %133
  call void @llvm.lifetime.end.p0(i64 4, ptr %28) #8
  call void @llvm.lifetime.end.p0(i64 8, ptr %27) #8
  call void @llvm.lifetime.end.p0(i64 8, ptr %26) #8
  call void @llvm.lifetime.end.p0(i64 4, ptr %25) #8
  call void @llvm.lifetime.end.p0(i64 8, ptr %24) #8
  call void @llvm.lifetime.end.p0(i64 8, ptr %23) #8
  call void @llvm.lifetime.end.p0(i64 4, ptr %22) #8
  br label %218

218:                                              ; preds = %217
  %219 = load i32, ptr %21, align 4, !tbaa !36
  %220 = add nsw i32 %219, 1
  store i32 %220, ptr %21, align 4, !tbaa !36
  br label %70, !llvm.loop !83

221:                                              ; preds = %70
  call void @llvm.lifetime.end.p0(i64 4, ptr %21) #8
  call void @llvm.lifetime.end.p0(i64 4, ptr %20) #8
  call void @llvm.lifetime.end.p0(i64 4, ptr %19) #8
  call void @llvm.lifetime.end.p0(i64 4, ptr %18) #8
  call void @llvm.lifetime.end.p0(i64 4, ptr %17) #8
  call void @llvm.lifetime.end.p0(i64 4, ptr %16) #8
  call void @llvm.lifetime.end.p0(i64 4, ptr %15) #8
  call void @llvm.lifetime.end.p0(i64 8, ptr %14) #8
  call void @llvm.lifetime.end.p0(i64 8, ptr %13) #8
  call void @llvm.lifetime.end.p0(i64 8, ptr %12) #8
  call void @llvm.lifetime.end.p0(i64 8, ptr %11) #8
  call void @llvm.lifetime.end.p0(i64 8, ptr %10) #8
  call void @llvm.lifetime.end.p0(i64 8, ptr %9) #8
  ret i32 0
}