; Function Attrs: nofree norecurse nosync nounwind memory(readwrite, inaccessiblemem: none) uwtable
define internal noundef i32 @remap_planar8_nearest_slice(ptr noundef readonly captures(none) %0, ptr noundef readonly captures(none) %1, i32 noundef %2, i32 noundef %3) #4 {
  %5 = load ptr, ptr %1, align 8, !tbaa !48
  %6 = getelementptr inbounds nuw i8, ptr %1, i64 8
  %7 = load ptr, ptr %6, align 8, !tbaa !51
  %8 = getelementptr inbounds nuw i8, ptr %1, i64 16
  %9 = load ptr, ptr %8, align 8, !tbaa !52
  %10 = getelementptr inbounds nuw i8, ptr %1, i64 24
  %11 = load ptr, ptr %10, align 8, !tbaa !53
  %12 = getelementptr inbounds nuw i8, ptr %11, i64 108
  %13 = load i32, ptr %12, align 4, !tbaa !54
  %14 = mul nsw i32 %13, %2
  %15 = sdiv i32 %14, %3
  %16 = add nsw i32 %2, 1
  %17 = mul nsw i32 %13, %16
  %18 = sdiv i32 %17, %3
  %19 = getelementptr inbounds nuw i8, ptr %1, i64 32
  %20 = load i32, ptr %19, align 8, !tbaa !59
  %21 = icmp sgt i32 %20, 0
  br i1 %21, label %.lr.ph79, label %._crit_edge80

.lr.ph79:                                         ; preds = %4
  %22 = getelementptr inbounds nuw i8, ptr %9, i64 64
  %23 = load i32, ptr %22, align 8, !tbaa !45
  %24 = sdiv i32 %23, 2
  %25 = getelementptr inbounds nuw i8, ptr %7, i64 64
  %26 = load i32, ptr %25, align 8, !tbaa !45
  %27 = sdiv i32 %26, 2
  %28 = getelementptr inbounds nuw i8, ptr %0, i64 72
  %29 = load ptr, ptr %28, align 8, !tbaa !4
  %30 = getelementptr inbounds nuw i8, ptr %11, i64 64
  %31 = getelementptr inbounds nuw i8, ptr %5, i64 64
  %32 = mul nsw i32 %27, %15
  %33 = sext i32 %32 to i64
  %34 = mul nsw i32 %24, %15
  %35 = sext i32 %34 to i64
  %36 = getelementptr inbounds nuw i8, ptr %29, i64 28
  %37 = icmp slt i32 %15, %18
  %38 = getelementptr inbounds nuw i8, ptr %11, i64 104
  %39 = getelementptr inbounds nuw i8, ptr %5, i64 108
  %40 = getelementptr inbounds nuw i8, ptr %5, i64 104
  %41 = sext i32 %27 to i64
  %42 = sext i32 %24 to i64
  br i1 %37, label %.lr.ph79.split.us, label %._crit_edge80

.lr.ph79.split.us:                                ; preds = %.lr.ph79
  %43 = load i32, ptr %38, align 8, !tbaa !60
  %44 = icmp sgt i32 %43, 0
  br i1 %44, label %.preheader.lr.ph.us, label %._crit_edge80

.preheader.lr.ph.us:                              ; preds = %.lr.ph79.split.us, %._crit_edge76.us
  %45 = phi i32 [ %97, %._crit_edge76.us ], [ %20, %.lr.ph79.split.us ]
  %46 = phi i32 [ %98, %._crit_edge76.us ], [ %43, %.lr.ph79.split.us ]
  %47 = phi i32 [ %99, %._crit_edge76.us ], [ %43, %.lr.ph79.split.us ]
  %indvars.iv92 = phi i64 [ %indvars.iv.next93, %._crit_edge76.us ], [ 0, %.lr.ph79.split.us ]
  %48 = getelementptr inbounds nuw [8 x i32], ptr %30, i64 0, i64 %indvars.iv92
  %49 = load i32, ptr %48, align 4, !tbaa !45
  %50 = getelementptr inbounds nuw [8 x ptr], ptr %5, i64 0, i64 %indvars.iv92
  %51 = load ptr, ptr %50, align 8, !tbaa !61
  %52 = getelementptr inbounds nuw [8 x i32], ptr %31, i64 0, i64 %indvars.iv92
  %53 = load i32, ptr %52, align 4, !tbaa !45
  %54 = getelementptr inbounds nuw [4 x i32], ptr %36, i64 0, i64 %indvars.iv92
  %55 = load i32, ptr %54, align 4, !tbaa !45
  %56 = trunc i32 %55 to i8
  %57 = sext i32 %49 to i64
  %58 = icmp sgt i32 %47, 0
  br i1 %58, label %.preheader.us81.preheader, label %._crit_edge76.us

.preheader.us81.preheader:                        ; preds = %.preheader.lr.ph.us
  %59 = load ptr, ptr %9, align 8, !tbaa !61
  %60 = getelementptr inbounds i16, ptr %59, i64 %35
  %61 = load ptr, ptr %7, align 8, !tbaa !61
  %62 = getelementptr inbounds i16, ptr %61, i64 %33
  %63 = getelementptr inbounds nuw [8 x ptr], ptr %11, i64 0, i64 %indvars.iv92
  %64 = load ptr, ptr %63, align 8, !tbaa !61
  %65 = mul nsw i32 %49, %15
  %66 = sext i32 %65 to i64
  %67 = getelementptr inbounds i8, ptr %64, i64 %66
  br label %.preheader.us81

._crit_edge.us:                                   ; preds = %90, %.preheader.us81
  %68 = phi i32 [ %95, %.preheader.us81 ], [ %92, %90 ]
  %69 = getelementptr inbounds i8, ptr %.06772.us85, i64 %57
  %70 = getelementptr inbounds i16, ptr %.06574.us83, i64 %41
  %71 = getelementptr inbounds i16, ptr %.06475.us82, i64 %42
  %72 = add nsw i32 %.06673.us84, 1
  %exitcond.not = icmp eq i32 %72, %18
  br i1 %exitcond.not, label %._crit_edge76.us.loopexit, label %.preheader.us81, !llvm.loop !62

.lr.ph.us:                                        ; preds = %.preheader.us81, %90
  %indvars.iv = phi i64 [ %indvars.iv.next, %90 ], [ 0, %.preheader.us81 ]
  %73 = getelementptr inbounds nuw i16, ptr %.06475.us82, i64 %indvars.iv
  %74 = load i16, ptr %73, align 2, !tbaa !65
  %75 = zext i16 %74 to i32
  %76 = load i32, ptr %39, align 4, !tbaa !54
  %77 = icmp sgt i32 %76, %75
  br i1 %77, label %78, label %90

78:                                               ; preds = %.lr.ph.us
  %79 = getelementptr inbounds nuw i16, ptr %.06574.us83, i64 %indvars.iv
  %80 = load i16, ptr %79, align 2, !tbaa !65
  %81 = zext i16 %80 to i32
  %82 = load i32, ptr %40, align 8, !tbaa !60
  %83 = icmp sgt i32 %82, %81
  br i1 %83, label %84, label %90

84:                                               ; preds = %78
  %85 = mul nsw i32 %53, %75
  %86 = add nsw i32 %85, %81
  %87 = sext i32 %86 to i64
  %88 = getelementptr inbounds i8, ptr %51, i64 %87
  %89 = load i8, ptr %88, align 1, !tbaa !44
  br label %90

90:                                               ; preds = %.lr.ph.us, %78, %84
  %.sink = phi i8 [ %89, %84 ], [ %56, %78 ], [ %56, %.lr.ph.us ]
  %91 = getelementptr inbounds nuw i8, ptr %.06772.us85, i64 %indvars.iv
  store i8 %.sink, ptr %91, align 1, !tbaa !44
  %indvars.iv.next = add nuw nsw i64 %indvars.iv, 1
  %92 = load i32, ptr %38, align 8, !tbaa !60
  %93 = sext i32 %92 to i64
  %94 = icmp slt i64 %indvars.iv.next, %93
  br i1 %94, label %.lr.ph.us, label %._crit_edge.us, !llvm.loop !67

.preheader.us81:                                  ; preds = %.preheader.us81.preheader, %._crit_edge.us
  %95 = phi i32 [ %68, %._crit_edge.us ], [ %46, %.preheader.us81.preheader ]
  %.06475.us82 = phi ptr [ %71, %._crit_edge.us ], [ %60, %.preheader.us81.preheader ]
  %.06574.us83 = phi ptr [ %70, %._crit_edge.us ], [ %62, %.preheader.us81.preheader ]
  %.06673.us84 = phi i32 [ %72, %._crit_edge.us ], [ %15, %.preheader.us81.preheader ]
  %.06772.us85 = phi ptr [ %69, %._crit_edge.us ], [ %67, %.preheader.us81.preheader ]
  %96 = icmp sgt i32 %95, 0
  br i1 %96, label %.lr.ph.us, label %._crit_edge.us

._crit_edge76.us.loopexit:                        ; preds = %._crit_edge.us
  %.pre = load i32, ptr %19, align 8, !tbaa !59
  br label %._crit_edge76.us

._crit_edge76.us:                                 ; preds = %.preheader.lr.ph.us, %._crit_edge76.us.loopexit
  %97 = phi i32 [ %.pre, %._crit_edge76.us.loopexit ], [ %45, %.preheader.lr.ph.us ]
  %98 = phi i32 [ %68, %._crit_edge76.us.loopexit ], [ %46, %.preheader.lr.ph.us ]
  %99 = phi i32 [ %68, %._crit_edge76.us.loopexit ], [ %47, %.preheader.lr.ph.us ]
  %indvars.iv.next93 = add nuw nsw i64 %indvars.iv92, 1
  %100 = sext i32 %97 to i64
  %101 = icmp slt i64 %indvars.iv.next93, %100
  br i1 %101, label %.preheader.lr.ph.us, label %._crit_edge80, !llvm.loop !68

._crit_edge80:                                    ; preds = %._crit_edge76.us, %.lr.ph79, %.lr.ph79.split.us, %4
  ret i32 0
}